target datalayout = "e-m:e-p270:32:32-p271:32:32-p272:64:64-i64:64-i128:128-f80:128-n8:16:32:64-S128"
target triple = "x86_64-pc-linux-gnu"

%struct.ecx_key_st = type { ptr, ptr, i8, [57 x i8], ptr, i64, i32, %struct.CRYPTO_REF_COUNT }
%struct.CRYPTO_REF_COUNT = type { i32 }

@.str = private unnamed_addr constant [31 x i8] c"../openssl/crypto/ec/ecx_key.c\00", align 1

; Function Attrs: inlinehint nounwind uwtable
define internal void @CRYPTO_FREE_REF(ptr noundef %0) #3 {
  %2 = alloca ptr, align 8
  store ptr %0, ptr %2, align 8, !tbaa !21
  ret void
}

; Function Attrs: inlinehint nounwind uwtable
define internal i32 @CRYPTO_NEW_REF(ptr noundef %0, i32 noundef %1) #3 {
  %3 = alloca ptr, align 8
  %4 = alloca i32, align 4
  store ptr %0, ptr %3, align 8, !tbaa !21
  store i32 %1, ptr %4, align 4, !tbaa !8
  %5 = load i32, ptr %4, align 4, !tbaa !8
  %6 = load ptr, ptr %3, align 8, !tbaa !21
  %7 = getelementptr inbounds nuw %struct.CRYPTO_REF_COUNT, ptr %6, i32 0, i32 0
  store atomic i32 %5, ptr %7 seq_cst, align 4, !tbaa !22
  ret i32 1
}

; Function Attrs: nounwind uwtable
define ptr @ossl_ecx_key_new(ptr noundef %0, i32 noundef %1, i32 noundef %2, ptr noundef %3) #0 {
  %5 = alloca ptr, align 8
  %6 = alloca ptr, align 8
  %7 = alloca i32, align 4
  %8 = alloca i32, align 4
  %9 = alloca ptr, align 8
  %10 = alloca ptr, align 8
  %11 = alloca i32, align 4
  store ptr %0, ptr %6, align 8, !tbaa !3
  store i32 %1, ptr %7, align 4, !tbaa !8
  store i32 %2, ptr %8, align 4, !tbaa !8
  store ptr %3, ptr %9, align 8, !tbaa !10
  call void @llvm.lifetime.start.p0(i64 8, ptr %10) #5
  %12 = call noalias ptr @CRYPTO_zalloc(i64 noundef 104, ptr noundef @.str, i32 noundef 23)
  store ptr %12, ptr %10, align 8, !tbaa !12
  %13 = load ptr, ptr %10, align 8, !tbaa !12
  %14 = icmp eq ptr %13, null
  br i1 %14, label %15, label %16

15:                                               ; preds = %4
  store ptr null, ptr %5, align 8
  store i32 1, ptr %11, align 4
  br label %77

16:                                               ; preds = %4
  %17 = load ptr, ptr %6, align 8, !tbaa !3
  %18 = load ptr, ptr %10, align 8, !tbaa !12
  %19 = getelementptr inbounds nuw %struct.ecx_key_st, ptr %18, i32 0, i32 0
  store ptr %17, ptr %19, align 8, !tbaa !14
  %20 = load i32, ptr %8, align 4, !tbaa !8
  %21 = load ptr, ptr %10, align 8, !tbaa !12
  %22 = getelementptr inbounds nuw %struct.ecx_key_st, ptr %21, i32 0, i32 2
  %23 = trunc i32 %20 to i8
  %24 = load i8, ptr %22, align 8
  %25 = and i8 %23, 1
  %26 = and i8 %24, -2
  %27 = or i8 %26, %25
  store i8 %27, ptr %22, align 8
  %28 = load i32, ptr %7, align 4, !tbaa !8
  switch i32 %28, label %41 [
    i32 0, label %29
    i32 1, label %32
    i32 2, label %35
    i32 3, label %38
  ]

29:                                               ; preds = %16
  %30 = load ptr, ptr %10, align 8, !tbaa !12
  %31 = getelementptr inbounds nuw %struct.ecx_key_st, ptr %30, i32 0, i32 5
  store i64 32, ptr %31, align 8, !tbaa !18
  br label %41

32:                                               ; preds = %16
  %33 = load ptr, ptr %10, align 8, !tbaa !12
  %34 = getelementptr inbounds nuw %struct.ecx_key_st, ptr %33, i32 0, i32 5
  store i64 56, ptr %34, align 8, !tbaa !18
  br label %41

35:                                               ; preds = %16
  %36 = load ptr, ptr %10, align 8, !tbaa !12
  %37 = getelementptr inbounds nuw %struct.ecx_key_st, ptr %36, i32 0, i32 5
  store i64 32, ptr %37, align 8, !tbaa !18
  br label %41

38:                                               ; preds = %16
  %39 = load ptr, ptr %10, align 8, !tbaa !12
  %40 = getelementptr inbounds nuw %struct.ecx_key_st, ptr %39, i32 0, i32 5
  store i64 57, ptr %40, align 8, !tbaa !18
  br label %41

41:                                               ; preds = %16, %38, %35, %32, %29
  %42 = load i32, ptr %7, align 4, !tbaa !8
  %43 = load ptr, ptr %10, align 8, !tbaa !12
  %44 = getelementptr inbounds nuw %struct.ecx_key_st, ptr %43, i32 0, i32 6
  store i32 %42, ptr %44, align 8, !tbaa !19
  %45 = load ptr, ptr %10, align 8, !tbaa !12
  %46 = getelementptr inbounds nuw %struct.ecx_key_st, ptr %45, i32 0, i32 7
  %47 = call i32 @CRYPTO_NEW_REF(ptr noundef %46, i32 noundef 1)
  %48 = icmp ne i32 %47, 0
  br i1 %48, label %50, label %49

49:                                               ; preds = %41
  br label %66

50:                                               ; preds = %41
  %51 = load ptr, ptr %9, align 8, !tbaa !10
  %52 = icmp ne ptr %51, null
  br i1 %52, label %53, label %64

53:                                               ; preds = %50
  %54 = load ptr, ptr %9, align 8, !tbaa !10
  %55 = call noalias ptr @CRYPTO_strdup(ptr noundef %54, ptr noundef @.str, i32 noundef 50)
  %56 = load ptr, ptr %10, align 8, !tbaa !12
  %57 = getelementptr inbounds nuw %struct.ecx_key_st, ptr %56, i32 0, i32 1
  store ptr %55, ptr %57, align 8, !tbaa !20
  %58 = load ptr, ptr %10, align 8, !tbaa !12
  %59 = getelementptr inbounds nuw %struct.ecx_key_st, ptr %58, i32 0, i32 1
  %60 = load ptr, ptr %59, align 8, !tbaa !20
  %61 = icmp eq ptr %60, null
  br i1 %61, label %62, label %63

62:                                               ; preds = %53
  br label %66

63:                                               ; preds = %53
  br label %64

64:                                               ; preds = %63, %50
  %65 = load ptr, ptr %10, align 8, !tbaa !12
  store ptr %65, ptr %5, align 8
  store i32 1, ptr %11, align 4
  br label %77

66:                                               ; preds = %62, %49
  %67 = load ptr, ptr %10, align 8, !tbaa !12
  %68 = icmp ne ptr %67, null
  br i1 %68, label %69, label %75

69:                                               ; preds = %66
  %70 = load ptr, ptr %10, align 8, !tbaa !12
  %71 = getelementptr inbounds nuw %struct.ecx_key_st, ptr %70, i32 0, i32 1
  %72 = load ptr, ptr %71, align 8, !tbaa !20
  call void @CRYPTO_free(ptr noundef %72, ptr noundef @.str, i32 noundef 57)
  %73 = load ptr, ptr %10, align 8, !tbaa !12
  %74 = getelementptr inbounds nuw %struct.ecx_key_st, ptr %73, i32 0, i32 7
  call void @CRYPTO_FREE_REF(ptr noundef %74)
  br label %75

75:                                               ; preds = %69, %66
  %76 = load ptr, ptr %10, align 8, !tbaa !12
  call void @CRYPTO_free(ptr noundef %76, ptr noundef @.str, i32 noundef 60)
  store ptr null, ptr %5, align 8
  store i32 1, ptr %11, align 4
  br label %77

77:                                               ; preds = %75, %64, %15
  call void @llvm.lifetime.end.p0(i64 8, ptr %10) #5
  %78 = load ptr, ptr %5, align 8
  ret ptr %78
}