; Function Attrs: nounwind uwtable
define ptr @ossl_ecx_key_new(ptr noundef %0, i32 noundef %1, i32 noundef %2, ptr noundef %3) local_unnamed_addr #0 {
  %5 = tail call noalias ptr @CRYPTO_zalloc(i64 noundef 104, ptr noundef nonnull @.str, i32 noundef 23) #4
  %6 = icmp eq ptr %5, null
  br i1 %6, label %25, label %7

7:                                                ; preds = %4
  store ptr %0, ptr %5, align 8, !tbaa !3
  %8 = getelementptr inbounds nuw i8, ptr %5, i64 16
  %9 = trunc i32 %2 to i8
  %10 = load i8, ptr %8, align 8
  %11 = and i8 %9, 1
  %12 = and i8 %10, -2
  %13 = or disjoint i8 %12, %11
  store i8 %13, ptr %8, align 8
  %14 = icmp ult i32 %1, 4
  br i1 %14, label %switch.lookup, label %17

switch.lookup:                                    ; preds = %7
  %15 = zext nneg i32 %1 to i64
  %switch.gep = getelementptr inbounds nuw [4 x i64], ptr @switch.table.ossl_ecx_key_new, i64 0, i64 %15
  %switch.load = load i64, ptr %switch.gep, align 8
  %16 = getelementptr inbounds nuw i8, ptr %5, i64 88
  store i64 %switch.load, ptr %16, align 8, !tbaa !13
  br label %17

17:                                               ; preds = %7, %switch.lookup
  %18 = getelementptr inbounds nuw i8, ptr %5, i64 96
  store i32 %1, ptr %18, align 8, !tbaa !14
  %19 = getelementptr inbounds nuw i8, ptr %5, i64 100
  store atomic i32 1, ptr %19 seq_cst, align 4, !tbaa !15
  %.not = icmp eq ptr %3, null
  br i1 %.not, label %25, label %20

20:                                               ; preds = %17
  %21 = tail call noalias ptr @CRYPTO_strdup(ptr noundef nonnull %3, ptr noundef nonnull @.str, i32 noundef 50) #4
  %22 = getelementptr inbounds nuw i8, ptr %5, i64 8
  store ptr %21, ptr %22, align 8, !tbaa !16
  %23 = icmp eq ptr %21, null
  br i1 %23, label %24, label %25

24:                                               ; preds = %20
  tail call void @CRYPTO_free(ptr noundef null, ptr noundef nonnull @.str, i32 noundef 57) #4
  tail call void @CRYPTO_free(ptr noundef nonnull %5, ptr noundef nonnull @.str, i32 noundef 60) #4
  br label %25

25:                                               ; preds = %17, %20, %4, %24
  %.0 = phi ptr [ null, %24 ], [ null, %4 ], [ %5, %20 ], [ %5, %17 ]
  ret ptr %.0
}